target datalayout = "e-m:e-p270:32:32-p271:32:32-p272:64:64-i64:64-i128:128-f80:128-n8:16:32:64-S128"
target triple = "x86_64-pc-linux-gnu"

%"struct.cv::Ptr" = type { %"class.std::shared_ptr" }
%"class.std::shared_ptr" = type { %"class.std::__shared_ptr" }
%"class.std::__shared_ptr" = type { ptr, %"class.std::__shared_count" }
%"class.std::__shared_count" = type { ptr }
%union.pthread_mutex_t = type { %struct.__pthread_mutex_s }
%struct.__pthread_mutex_s = type { i32, i32, i32, i32, i32, i16, i16, %struct.__pthread_internal_list }
%struct.__pthread_internal_list = type { ptr, ptr }
%union.pthread_cond_t = type { %struct.__pthread_cond_s }
%struct.__pthread_cond_s = type { %union.__atomic_wide_counter, %union.__atomic_wide_counter, [2 x i32], [2 x i32], i32, i32, [2 x i32] }
%union.__atomic_wide_counter = type { i64 }
%"class.cv::ThreadPool" = type { i32, %union.pthread_mutex_t, %union.pthread_mutex_t, %union.pthread_cond_t, %"class.std::vector", %"struct.cv::Ptr" }
%"class.std::vector" = type { %"struct.std::_Vector_base" }
%"struct.std::_Vector_base" = type { %"struct.std::_Vector_base<cv::Ptr<cv::WorkerThread>, std::allocator<cv::Ptr<cv::WorkerThread>>>::_Vector_impl" }
%"struct.std::_Vector_base<cv::Ptr<cv::WorkerThread>, std::allocator<cv::Ptr<cv::WorkerThread>>>::_Vector_impl" = type { %"struct.std::_Vector_base<cv::Ptr<cv::WorkerThread>, std::allocator<cv::Ptr<cv::WorkerThread>>>::_Vector_impl_data" }
%"struct.std::_Vector_base<cv::Ptr<cv::WorkerThread>, std::allocator<cv::Ptr<cv::WorkerThread>>>::_Vector_impl_data" = type { ptr, ptr, ptr }

; Function Attrs: mustprogress nounwind uwtable
define linkonce_odr hidden noundef i64 @_ZNKSt6vectorIN2cv3PtrINS0_12WorkerThreadEEESaIS3_EE4sizeEv(ptr noundef nonnull align 8 dereferenceable(24) %0) #6 comdat align 2 {
  %2 = alloca ptr, align 8
  store ptr %0, ptr %2, align 8, !tbaa !72
  %3 = load ptr, ptr %2, align 8
  %4 = getelementptr inbounds nuw %"struct.std::_Vector_base", ptr %3, i32 0, i32 0
  %5 = getelementptr inbounds nuw %"struct.std::_Vector_base<cv::Ptr<cv::WorkerThread>, std::allocator<cv::Ptr<cv::WorkerThread>>>::_Vector_impl_data", ptr %4, i32 0, i32 1
  %6 = load ptr, ptr %5, align 8, !tbaa !82
  %7 = getelementptr inbounds nuw %"struct.std::_Vector_base", ptr %3, i32 0, i32 0
  %8 = getelementptr inbounds nuw %"struct.std::_Vector_base<cv::Ptr<cv::WorkerThread>, std::allocator<cv::Ptr<cv::WorkerThread>>>::_Vector_impl_data", ptr %7, i32 0, i32 0
  %9 = load ptr, ptr %8, align 8, !tbaa !81
  %10 = ptrtoint ptr %6 to i64
  %11 = ptrtoint ptr %9 to i64
  %12 = sub i64 %10, %11
  %13 = sdiv exact i64 %12, 16
  ret i64 %13
}

; Function Attrs: mustprogress nounwind uwtable
define linkonce_odr hidden noundef zeroext i1 @_ZNKSt12__shared_ptrIN2cv11ParallelJobELN9__gnu_cxx12_Lock_policyE2EEcvbEv(ptr noundef nonnull align 8 dereferenceable(16) %0) #6 comdat align 2 {
  %2 = alloca ptr, align 8
  store ptr %0, ptr %2, align 8, !tbaa !111
  %3 = load ptr, ptr %2, align 8
  %4 = getelementptr inbounds nuw %"class.std::__shared_ptr", ptr %3, i32 0, i32 0
  %5 = load ptr, ptr %4, align 8, !tbaa !113
  %6 = icmp ne ptr %5, null
  ret i1 %6
}

; Function Attrs: mustprogress uwtable
define linkonce_odr hidden void @_ZN2cv10ThreadPool11reconfigureEj(ptr noundef nonnull align 8 dereferenceable(176) %0, i32 noundef %1) #4 comdat align 2 {
  %3 = alloca ptr, align 8
  %4 = alloca i32, align 4
  store ptr %0, ptr %3, align 8, !tbaa !71
  store i32 %1, ptr %4, align 4, !tbaa !3
  %5 = load ptr, ptr %3, align 8
  %6 = load i32, ptr %4, align 4, !tbaa !3
  %7 = zext i32 %6 to i64
  %8 = getelementptr inbounds nuw %"class.cv::ThreadPool", ptr %5, i32 0, i32 4
  %9 = call noundef i64 @_ZNKSt6vectorIN2cv3PtrINS0_12WorkerThreadEEESaIS3_EE4sizeEv(ptr noundef nonnull align 8 dereferenceable(24) %8) #3
  %10 = icmp eq i64 %7, %9
  br i1 %10, label %11, label %12

11:                                               ; preds = %2
  br label %19

12:                                               ; preds = %2
  %13 = getelementptr inbounds nuw %"class.cv::ThreadPool", ptr %5, i32 0, i32 1
  %14 = call i32 @pthread_mutex_lock(ptr noundef %13) #3
  %15 = load i32, ptr %4, align 4, !tbaa !3
  %16 = call noundef zeroext i1 @_ZN2cv10ThreadPool12reconfigure_Ej(ptr noundef nonnull align 8 dereferenceable(176) %5, i32 noundef %15)
  %17 = getelementptr inbounds nuw %"class.cv::ThreadPool", ptr %5, i32 0, i32 1
  %18 = call i32 @pthread_mutex_unlock(ptr noundef %17) #3
  br label %19

19:                                               ; preds = %12, %11
  ret void
}

; Function Attrs: inlinehint mustprogress nounwind uwtable
define linkonce_odr hidden noundef zeroext i1 @_ZSteqIN2cv11ParallelJobEEbRKSt10shared_ptrIT_EDn(ptr noundef nonnull align 8 dereferenceable(16) %0, ptr %1) #7 comdat {
  %3 = alloca ptr, align 8
  %4 = alloca ptr, align 8
  store ptr %0, ptr %3, align 8, !tbaa !99
  store ptr %1, ptr %4, align 8, !tbaa !101
  %5 = load ptr, ptr %3, align 8, !tbaa !99
  %6 = call noundef zeroext i1 @_ZNKSt12__shared_ptrIN2cv11ParallelJobELN9__gnu_cxx12_Lock_policyE2EEcvbEv(ptr noundef nonnull align 8 dereferenceable(16) %5) #3
  %7 = xor i1 %6, true
  ret i1 %7
}

; Function Attrs: mustprogress uwtable
define hidden void @_ZN2cv10ThreadPool15setNumOfThreadsEj(ptr noundef nonnull align 8 dereferenceable(176) %0, i32 noundef %1) #4 align 2 {
  %3 = alloca ptr, align 8
  %4 = alloca i32, align 4
  store ptr %0, ptr %3, align 8, !tbaa !71
  store i32 %1, ptr %4, align 4, !tbaa !3
  %5 = load ptr, ptr %3, align 8
  %6 = load i32, ptr %4, align 4, !tbaa !3
  %7 = getelementptr inbounds nuw %"class.cv::ThreadPool", ptr %5, i32 0, i32 0
  %8 = load i32, ptr %7, align 8, !tbaa !51
  %9 = icmp ne i32 %6, %8
  br i1 %9, label %10, label %21

10:                                               ; preds = %2
  %11 = load i32, ptr %4, align 4, !tbaa !3
  %12 = getelementptr inbounds nuw %"class.cv::ThreadPool", ptr %5, i32 0, i32 0
  store i32 %11, ptr %12, align 8, !tbaa !51
  %13 = load i32, ptr %4, align 4, !tbaa !3
  %14 = icmp eq i32 %13, 1
  br i1 %14, label %15, label %20

15:                                               ; preds = %10
  %16 = getelementptr inbounds nuw %"class.cv::ThreadPool", ptr %5, i32 0, i32 5
  %17 = call noundef zeroext i1 @_ZSteqIN2cv11ParallelJobEEbRKSt10shared_ptrIT_EDn(ptr noundef nonnull align 8 dereferenceable(16) %16, ptr null) #3
  br i1 %17, label %18, label %19

18:                                               ; preds = %15
  call void @_ZN2cv10ThreadPool11reconfigureEj(ptr noundef nonnull align 8 dereferenceable(176) %5, i32 noundef 0)
  br label %19

19:                                               ; preds = %18, %15
  br label %20

20:                                               ; preds = %19, %10
  br label %21

21:                                               ; preds = %20, %2
  ret void
}