; Function Attrs: mustprogress uwtable
define hidden void @_ZN2cv10ThreadPool15setNumOfThreadsEj(ptr noundef nonnull align 8 dereferenceable(176) %0, i32 noundef %1) local_unnamed_addr #3 align 2 {
  %3 = load i32, ptr %0, align 8, !tbaa !45
  %.not = icmp eq i32 %1, %3
  br i1 %.not, label %_ZN2cv10ThreadPool11reconfigureEj.exit, label %4

4:                                                ; preds = %2
  store i32 %1, ptr %0, align 8, !tbaa !45
  %5 = icmp eq i32 %1, 1
  %6 = getelementptr inbounds nuw i8, ptr %0, i64 160
  %7 = load ptr, ptr %6, align 8
  %.not.i = icmp eq ptr %7, null
  %or.cond = select i1 %5, i1 %.not.i, i1 false
  br i1 %or.cond, label %8, label %_ZN2cv10ThreadPool11reconfigureEj.exit

8:                                                ; preds = %4
  %9 = getelementptr inbounds nuw i8, ptr %0, i64 136
  %10 = getelementptr inbounds nuw i8, ptr %0, i64 144
  %11 = load ptr, ptr %10, align 8, !tbaa !86
  %12 = load ptr, ptr %9, align 8, !tbaa !85
  %13 = icmp eq ptr %11, %12
  br i1 %13, label %_ZN2cv10ThreadPool11reconfigureEj.exit, label %14

14:                                               ; preds = %8
  %15 = getelementptr inbounds nuw i8, ptr %0, i64 8
  %16 = tail call i32 @pthread_mutex_lock(ptr noundef nonnull %15) #5
  %17 = tail call noundef zeroext i1 @_ZN2cv10ThreadPool12reconfigure_Ej(ptr noundef nonnull align 8 dereferenceable(176) %0, i32 noundef 0)
  %18 = tail call i32 @pthread_mutex_unlock(ptr noundef nonnull %15) #5
  br label %_ZN2cv10ThreadPool11reconfigureEj.exit

_ZN2cv10ThreadPool11reconfigureEj.exit:           ; preds = %14, %8, %4, %2
  ret void
}